target datalayout = "e-m:e-p270:32:32-p271:32:32-p272:64:64-i64:64-i128:128-f80:128-n8:16:32:64-S128"
target triple = "x86_64-pc-linux-gnu"

%"struct.vcpkg::LocalizedString" = type { %"class.std::__cxx11::basic_string" }
%"class.std::__cxx11::basic_string" = type { %"struct.std::__cxx11::basic_string<char>::_Alloc_hider", i64, %union.anon }
%"struct.std::__cxx11::basic_string<char>::_Alloc_hider" = type { ptr }
%union.anon = type { i64, [8 x i8] }
%"struct.vcpkg::StringView" = type { ptr, i64 }
%"class.fmt::v10::basic_string_view" = type { ptr, i64 }
%"class.fmt::v10::basic_format_string" = type { %"class.fmt::v10::basic_string_view" }
%"class.fmt::v10::basic_format_args" = type { i64, %union.anon.3 }
%union.anon.3 = type { ptr }
%"class.fmt::v10::format_arg_store" = type { %"struct.fmt::v10::detail::arg_data" }
%"struct.fmt::v10::detail::arg_data" = type { [1 x %"class.fmt::v10::detail::value"] }
%"class.fmt::v10::detail::value" = type { %union.anon.162 }
%union.anon.162 = type { i128 }
%"struct.fmt::v10::detail::arg_mapper" = type { i8 }
%"struct.fmt::v10::detail::custom_value" = type { ptr, ptr }

@.str = private unnamed_addr constant [4 x i8] c"${}\00", align 1
@_ZN5vcpkg15LocalizedStringC1EONSt7__cxx1112basic_stringIcSt11char_traitsIcESaIcEEE = dso_local unnamed_addr alias void (ptr, ptr), ptr @_ZN5vcpkg15LocalizedStringC2EONSt7__cxx1112basic_stringIcSt11char_traitsIcESaIcEEE

; Function Attrs: mustprogress nounwind uwtable
define weak_odr dso_local void @_ZN5vcpkg15LocalizedString8from_rawIcTnNSt9enable_ifIXsr3std7is_sameIcT_EE5valueEiE4typeELi0EEES0_ONSt7__cxx1112basic_stringIS3_St11char_traitsIS3_ESaIS3_EEE(ptr dead_on_unwind noalias writable sret(%"struct.vcpkg::LocalizedString") align 8 %0, ptr noundef nonnull align 8 dereferenceable(32) %1) #0 comdat align 2 {
  %3 = alloca ptr, align 8
  %4 = alloca ptr, align 8
  store ptr %0, ptr %3, align 8
  store ptr %1, ptr %4, align 8
  %5 = load ptr, ptr %4, align 8
  call void @_ZN5vcpkg15LocalizedStringC1EONSt7__cxx1112basic_stringIcSt11char_traitsIcESaIcEEE(ptr noundef nonnull align 8 dereferenceable(32) %0, ptr noundef nonnull align 8 dereferenceable(32) %5) #8
  ret void
}

; Function Attrs: mustprogress uwtable
define linkonce_odr dso_local { i64, i64 } @_ZN3fmt3v1016make_format_argsINS0_20basic_format_contextINS0_8appenderEcEEJN5vcpkg10StringViewEEEENS0_16format_arg_storeIT_JDpNSt9remove_cvINSt16remove_referenceIT0_E4typeEE4typeEEEEDpRSB_(ptr noundef nonnull align 8 dereferenceable(16) %0) #2 comdat {
  %2 = alloca ptr, align 8
  %3 = alloca ptr, align 8
  %4 = alloca ptr, align 8
  %5 = alloca ptr, align 8
  %6 = alloca ptr, align 8
  %7 = alloca ptr, align 8
  %8 = alloca ptr, align 8
  %9 = alloca ptr, align 8
  %10 = alloca %"class.fmt::v10::detail::value", align 16
  %11 = alloca ptr, align 8
  %12 = alloca i8, align 1
  %13 = alloca i8, align 1
  %14 = alloca i8, align 1
  %15 = alloca %"struct.fmt::v10::detail::arg_mapper", align 1
  %16 = alloca ptr, align 8
  %17 = alloca ptr, align 8
  %18 = alloca %"class.fmt::v10::detail::value", align 16
  %19 = alloca %"class.fmt::v10::format_arg_store", align 16
  %20 = alloca ptr, align 8
  store ptr %0, ptr %20, align 8
  %21 = load ptr, ptr %20, align 8
  store ptr %19, ptr %16, align 8
  store ptr %21, ptr %17, align 8
  %22 = load ptr, ptr %16, align 8
  %23 = load ptr, ptr %17, align 8
  store ptr %23, ptr %11, align 8
  store i8 1, ptr %12, align 1
  store i8 1, ptr %13, align 1
  store i8 1, ptr %14, align 1
  %24 = load ptr, ptr %11, align 8
  store ptr %15, ptr %6, align 8
  store ptr %24, ptr %7, align 8
  %25 = load ptr, ptr %6, align 8
  %26 = load ptr, ptr %7, align 8
  store ptr %25, ptr %2, align 8
  store ptr %26, ptr %3, align 8
  %27 = load ptr, ptr %3, align 8
  store ptr %10, ptr %4, align 8
  store ptr %27, ptr %5, align 8
  %28 = load ptr, ptr %4, align 8
  %29 = load ptr, ptr %5, align 8
  store ptr %29, ptr %28, align 16
  %30 = getelementptr inbounds %"struct.fmt::v10::detail::custom_value", ptr %28, i32 0, i32 1
  store ptr @_ZN3fmt3v106detail5valueINS0_20basic_format_contextINS0_8appenderEcEEE17format_custom_argIN5vcpkg10StringViewENS0_9formatterIS9_cvEEEEvPvRNS0_26basic_format_parse_contextIcEERS5_, ptr %30, align 8
  %31 = load { i64, i64 }, ptr %10, align 16
  %32 = extractvalue { i64, i64 } %31, 0
  store i64 %32, ptr %18, align 16
  %33 = getelementptr inbounds { i64, i64 }, ptr %18, i32 0, i32 1
  %34 = extractvalue { i64, i64 } %31, 1
  store i64 %34, ptr %33, align 8
  store ptr %22, ptr %8, align 8
  store ptr %18, ptr %9, align 8
  %35 = load ptr, ptr %8, align 8
  %36 = load ptr, ptr %9, align 8
  call void @llvm.memcpy.p0.p0.i64(ptr align 16 %35, ptr align 16 %36, i64 16, i1 false)
  %37 = getelementptr inbounds %"class.fmt::v10::format_arg_store", ptr %19, i32 0, i32 0
  %38 = getelementptr inbounds %"struct.fmt::v10::detail::arg_data", ptr %37, i32 0, i32 0
  %39 = load { i64, i64 }, ptr %38, align 16
  ret { i64, i64 } %39
}

; Function Attrs: mustprogress nounwind uwtable
define linkonce_odr dso_local noundef i64 @_ZNSt11char_traitsIcE6lengthEPKc(ptr noundef %0) #0 comdat align 2 {
  %2 = alloca ptr, align 8
  store ptr %0, ptr %2, align 8
  %3 = load ptr, ptr %2, align 8
  %4 = call i64 @strlen(ptr noundef %3) #8
  ret i64 %4
}

; Function Attrs: mustprogress uwtable
define dso_local void @_ZN5vcpkg27format_environment_variableENS_10StringViewE(ptr dead_on_unwind noalias writable sret(%"struct.vcpkg::LocalizedString") align 8 %0, ptr %1, i64 %2) #2 {
  %4 = alloca ptr, align 8
  %5 = alloca ptr, align 8
  %6 = alloca i64, align 8
  %7 = alloca ptr, align 8
  %8 = alloca ptr, align 8
  %9 = alloca ptr, align 8
  %10 = alloca ptr, align 8
  %11 = alloca ptr, align 8
  %12 = alloca ptr, align 8
  %13 = alloca %"class.fmt::v10::basic_string_view", align 8
  %14 = alloca ptr, align 8
  %15 = alloca ptr, align 8
  %16 = alloca ptr, align 8
  %17 = alloca ptr, align 8
  %18 = alloca %"class.fmt::v10::basic_format_string", align 8
  %19 = alloca ptr, align 8
  %20 = alloca %"class.fmt::v10::basic_string_view", align 8
  %21 = alloca %"class.fmt::v10::basic_format_args", align 8
  %22 = alloca %"class.fmt::v10::format_arg_store", align 16
  %23 = alloca ptr, align 8
  %24 = alloca %"struct.vcpkg::StringView", align 8
  %25 = alloca %"class.std::__cxx11::basic_string", align 8
  %26 = alloca %"class.fmt::v10::basic_format_string", align 8
  store ptr %0, ptr %23, align 8
  %27 = getelementptr inbounds { ptr, i64 }, ptr %24, i32 0, i32 0
  store ptr %1, ptr %27, align 8
  %28 = getelementptr inbounds { ptr, i64 }, ptr %24, i32 0, i32 1
  store i64 %2, ptr %28, align 8
  store ptr %26, ptr %15, align 8
  store ptr @.str, ptr %16, align 8
  %29 = load ptr, ptr %15, align 8
  %30 = load ptr, ptr %16, align 8
  store ptr %29, ptr %9, align 8
  store ptr %30, ptr %10, align 8
  %31 = load ptr, ptr %9, align 8
  %32 = load ptr, ptr %10, align 8
  store ptr %32, ptr %31, align 8
  %33 = getelementptr inbounds %"class.fmt::v10::basic_string_view", ptr %31, i32 0, i32 1
  %34 = load ptr, ptr %10, align 8
  %35 = call noundef i64 @_ZNSt11char_traitsIcE6lengthEPKc(ptr noundef %34)
  store i64 %35, ptr %33, align 8
  %36 = load ptr, ptr %16, align 8
  store ptr %36, ptr %4, align 8
  %37 = getelementptr inbounds { ptr, i64 }, ptr %26, i32 0, i32 0
  %38 = load ptr, ptr %37, align 8
  %39 = getelementptr inbounds { ptr, i64 }, ptr %26, i32 0, i32 1
  %40 = load i64, ptr %39, align 8
  call void @llvm.experimental.noalias.scope.decl(metadata !5)
  store ptr %25, ptr %17, align 8, !noalias !5
  store ptr %38, ptr %18, align 8, !noalias !5
  %41 = getelementptr inbounds { ptr, i64 }, ptr %18, i32 0, i32 1
  store i64 %40, ptr %41, align 8, !noalias !5
  store ptr %24, ptr %19, align 8, !noalias !5
  store ptr %18, ptr %14, align 8
  %42 = load ptr, ptr %14, align 8
  call void @llvm.memcpy.p0.p0.i64(ptr align 8 %13, ptr align 8 %42, i64 16, i1 false)
  %43 = load { ptr, i64 }, ptr %13, align 8
  %44 = extractvalue { ptr, i64 } %43, 0
  store ptr %44, ptr %20, align 8, !noalias !5
  %45 = getelementptr inbounds { ptr, i64 }, ptr %20, i32 0, i32 1
  %46 = extractvalue { ptr, i64 } %43, 1
  store i64 %46, ptr %45, align 8, !noalias !5
  %47 = load ptr, ptr %19, align 8, !noalias !5
  %48 = call { i64, i64 } @_ZN3fmt3v1016make_format_argsINS0_20basic_format_contextINS0_8appenderEcEEJN5vcpkg10StringViewEEEENS0_16format_arg_storeIT_JDpNSt9remove_cvINSt16remove_referenceIT0_E4typeEE4typeEEEEDpRSB_(ptr noundef nonnull align 8 dereferenceable(16) %47)
  %49 = extractvalue { i64, i64 } %48, 0
  store i64 %49, ptr %22, align 16, !noalias !5
  %50 = getelementptr inbounds { i64, i64 }, ptr %22, i32 0, i32 1
  %51 = extractvalue { i64, i64 } %48, 1
  store i64 %51, ptr %50, align 8, !noalias !5
  store ptr %21, ptr %11, align 8
  store ptr %22, ptr %12, align 8
  %52 = load ptr, ptr %11, align 8
  %53 = load ptr, ptr %12, align 8
  store ptr %53, ptr %8, align 8
  %54 = load ptr, ptr %8, align 8
  store ptr %52, ptr %5, align 8
  store i64 15, ptr %6, align 8
  store ptr %54, ptr %7, align 8
  %55 = load ptr, ptr %5, align 8
  %56 = load i64, ptr %6, align 8
  store i64 %56, ptr %55, align 8
  %57 = getelementptr inbounds %"class.fmt::v10::basic_format_args", ptr %55, i32 0, i32 1
  %58 = load ptr, ptr %7, align 8
  store ptr %58, ptr %57, align 8
  %59 = load ptr, ptr %20, align 8, !noalias !5
  %60 = getelementptr inbounds { ptr, i64 }, ptr %20, i32 0, i32 1
  %61 = load i64, ptr %60, align 8, !noalias !5
  %62 = load i64, ptr %21, align 8, !noalias !5
  %63 = getelementptr inbounds { i64, ptr }, ptr %21, i32 0, i32 1
  %64 = load ptr, ptr %63, align 8, !noalias !5
  call void @_ZN3fmt3v107vformatB5cxx11ENS0_17basic_string_viewIcEENS0_17basic_format_argsINS0_20basic_format_contextINS0_8appenderEcEEEE(ptr dead_on_unwind writable sret(%"class.std::__cxx11::basic_string") align 8 %25, ptr %59, i64 %61, i64 %62, ptr %64)
  call void @_ZN5vcpkg15LocalizedString8from_rawIcTnNSt9enable_ifIXsr3std7is_sameIcT_EE5valueEiE4typeELi0EEES0_ONSt7__cxx1112basic_stringIS3_St11char_traitsIS3_ESaIS3_EEE(ptr dead_on_unwind writable sret(%"struct.vcpkg::LocalizedString") align 8 %0, ptr noundef nonnull align 8 dereferenceable(32) %25) #8
  call void @_ZNSt7__cxx1112basic_stringIcSt11char_traitsIcESaIcEED1Ev(ptr noundef nonnull align 8 dereferenceable(32) %25) #8
  ret void
}