; Function Attrs: mustprogress uwtable
define dso_local void @_ZN5vcpkg27format_environment_variableENS_10StringViewE(ptr dead_on_unwind noalias writable sret(%"struct.vcpkg::LocalizedString") align 8 %0, ptr %1, i64 %2) local_unnamed_addr #3 {
  %4 = alloca %"class.fmt::v10::format_arg_store", align 16
  %5 = alloca %"struct.vcpkg::StringView", align 8
  %6 = alloca %"class.std::__cxx11::basic_string", align 8
  store ptr %1, ptr %5, align 8
  %7 = getelementptr inbounds i8, ptr %5, i64 8
  store i64 %2, ptr %7, align 8
  %8 = ptrtoint ptr %5 to i64
  store i64 %8, ptr %4, align 16, !noalias !5
  %9 = getelementptr inbounds i8, ptr %4, i64 8
  store i64 ptrtoint (ptr @_ZN3fmt3v106detail5valueINS0_20basic_format_contextINS0_8appenderEcEEE17format_custom_argIN5vcpkg10StringViewENS0_9formatterIS9_cvEEEEvPvRNS0_26basic_format_parse_contextIcEERS5_ to i64), ptr %9, align 8, !noalias !5
  call void @_ZN3fmt3v107vformatB5cxx11ENS0_17basic_string_viewIcEENS0_17basic_format_argsINS0_20basic_format_contextINS0_8appenderEcEEEE(ptr dead_on_unwind nonnull writable sret(%"class.std::__cxx11::basic_string") align 8 %6, ptr nonnull @.str, i64 3, i64 15, ptr nonnull %4)
  call void @_ZNSt7__cxx1112basic_stringIcSt11char_traitsIcESaIcEEC1EOS4_(ptr noundef nonnull align 8 dereferenceable(32) %0, ptr noundef nonnull align 8 dereferenceable(32) %6) #25
  call void @_ZNSt7__cxx1112basic_stringIcSt11char_traitsIcESaIcEED1Ev(ptr noundef nonnull align 8 dereferenceable(32) %6) #25
  ret void
}